; Function Attrs: nounwind uwtable
define noalias nonnull ptr @l_Lean_Elab_Tactic_BVDecide_Frontend_ReifiedBVExpr_mkBVConst(ptr noundef %0, ptr noundef %1, ptr readnone captures(none) %2, ptr readnone captures(none) %3, ptr readnone captures(none) %4, ptr readnone captures(none) %5, ptr readnone captures(none) %6, ptr noundef %7) local_unnamed_addr #0 {
  %9 = ptrtoint ptr %1 to i64
  %10 = and i64 %9, 1
  %.not = icmp eq i64 %10, 0
  br i1 %.not, label %11, label %lean_inc.exit33

11:                                               ; preds = %8
  %.val.i = load i32, ptr %1, align 4, !tbaa !4
  %12 = icmp sgt i32 %.val.i, 0
  br i1 %12, label %13, label %15, !prof !11

13:                                               ; preds = %11
  %14 = add nuw i32 %.val.i, 1
  store i32 %14, ptr %1, align 4, !tbaa !4
  br label %lean_inc.exit33

15:                                               ; preds = %11
  %.not.i = icmp eq i32 %.val.i, 0
  br i1 %.not.i, label %lean_inc.exit33, label %16

16:                                               ; preds = %15
  tail call void @lean_inc_ref_cold(ptr noundef nonnull %1) #3
  br label %lean_inc.exit33

lean_inc.exit33:                                  ; preds = %16, %15, %13, %8
  %17 = ptrtoint ptr %0 to i64
  %18 = and i64 %17, 1
  %.not47 = icmp eq i64 %18, 0
  br i1 %.not47, label %19, label %lean_inc.exit32

19:                                               ; preds = %lean_inc.exit33
  %.val.i34 = load i32, ptr %0, align 4, !tbaa !4
  %20 = icmp sgt i32 %.val.i34, 0
  br i1 %20, label %21, label %23, !prof !11

21:                                               ; preds = %19
  %22 = add nuw i32 %.val.i34, 1
  store i32 %22, ptr %0, align 4, !tbaa !4
  br label %26

23:                                               ; preds = %19
  %.not.i35 = icmp eq i32 %.val.i34, 0
  br i1 %.not.i35, label %26, label %24

24:                                               ; preds = %23
  tail call void @lean_inc_ref_cold(ptr noundef nonnull %0) #3
  br label %26

lean_inc.exit32:                                  ; preds = %lean_inc.exit33
  %25 = tail call ptr @l_Std_Tactic_BVDecide_BVExpr_const___override(ptr noundef %0, ptr noundef %1) #3
  br label %lean_inc.exit31

26:                                               ; preds = %24, %23, %21
  %27 = tail call ptr @l_Std_Tactic_BVDecide_BVExpr_const___override(ptr noundef nonnull %0, ptr noundef %1) #3
  %.val.i37 = load i32, ptr %0, align 4, !tbaa !4
  %28 = icmp sgt i32 %.val.i37, 0
  br i1 %28, label %29, label %31, !prof !11

29:                                               ; preds = %26
  %30 = add nuw i32 %.val.i37, 1
  store i32 %30, ptr %0, align 4, !tbaa !4
  br label %lean_inc.exit31

31:                                               ; preds = %26
  %.not.i38 = icmp eq i32 %.val.i37, 0
  br i1 %.not.i38, label %lean_inc.exit31, label %32

32:                                               ; preds = %31
  tail call void @lean_inc_ref_cold(ptr noundef nonnull %0) #3
  br label %lean_inc.exit31

lean_inc.exit31:                                  ; preds = %32, %31, %29, %lean_inc.exit32
  %33 = phi ptr [ %25, %lean_inc.exit32 ], [ %27, %29 ], [ %27, %31 ], [ %27, %32 ]
  %34 = tail call ptr @l_Lean_mkNatLit(ptr noundef %0) #3
  %35 = tail call ptr @l_Lean_mkNatLit(ptr noundef %1) #3
  %36 = load ptr, ptr @l_Lean_Elab_Tactic_BVDecide_Frontend_ReifiedBVExpr_mkBVConst___closed__6, align 8, !tbaa !9
  %37 = ptrtoint ptr %34 to i64
  %38 = and i64 %37, 1
  %.not48 = icmp eq i64 %38, 0
  br i1 %.not48, label %39, label %lean_inc.exit30

39:                                               ; preds = %lean_inc.exit31
  %.val.i40 = load i32, ptr %34, align 4, !tbaa !4
  %40 = icmp sgt i32 %.val.i40, 0
  br i1 %40, label %41, label %43, !prof !11

41:                                               ; preds = %39
  %42 = add nuw i32 %.val.i40, 1
  store i32 %42, ptr %34, align 4, !tbaa !4
  br label %lean_inc.exit30

43:                                               ; preds = %39
  %.not.i41 = icmp eq i32 %.val.i40, 0
  br i1 %.not.i41, label %lean_inc.exit30, label %44

44:                                               ; preds = %43
  tail call void @lean_inc_ref_cold(ptr noundef nonnull %34) #3
  br label %lean_inc.exit30

lean_inc.exit30:                                  ; preds = %44, %43, %41, %lean_inc.exit31
  %45 = tail call ptr @l_Lean_mkAppB(ptr noundef %36, ptr noundef %34, ptr noundef %35) #3
  %46 = load ptr, ptr @l_Lean_Elab_Tactic_BVDecide_Frontend_ReifiedBVExpr_mkBVConst___closed__3, align 8, !tbaa !9
  %47 = ptrtoint ptr %45 to i64
  %48 = and i64 %47, 1
  %.not49 = icmp eq i64 %48, 0
  br i1 %.not49, label %49, label %lean_inc.exit

49:                                               ; preds = %lean_inc.exit30
  %.val.i43 = load i32, ptr %45, align 4, !tbaa !4
  %50 = icmp sgt i32 %.val.i43, 0
  br i1 %50, label %51, label %53, !prof !11

51:                                               ; preds = %49
  %52 = add nuw i32 %.val.i43, 1
  store i32 %52, ptr %45, align 4, !tbaa !4
  br label %lean_inc.exit

53:                                               ; preds = %49
  %.not.i44 = icmp eq i32 %.val.i43, 0
  br i1 %.not.i44, label %lean_inc.exit, label %54

54:                                               ; preds = %53
  tail call void @lean_inc_ref_cold(ptr noundef nonnull %45) #3
  br label %lean_inc.exit

lean_inc.exit:                                    ; preds = %54, %53, %51, %lean_inc.exit30
  %55 = tail call ptr @l_Lean_mkAppB(ptr noundef %46, ptr noundef %34, ptr noundef %45) #3
  %56 = load ptr, ptr @l_Lean_Elab_Tactic_BVDecide_Frontend_ReifiedBVExpr_mkBVConst___closed__7, align 8, !tbaa !9
  tail call void @lean_inc_heartbeat() #3
  %57 = tail call noalias ptr @mi_malloc_small(i64 noundef 48) #3
  %58 = icmp eq ptr %57, null
  br i1 %58, label %59, label %lean_alloc_ctor.exit

59:                                               ; preds = %lean_inc.exit
  tail call void @lean_internal_panic_out_of_memory() #4
  unreachable

lean_alloc_ctor.exit:                             ; preds = %lean_inc.exit
  %60 = getelementptr inbounds nuw i8, ptr %57, i64 4
  store i32 1, ptr %57, align 4, !tbaa !4
  store i32 327728, ptr %60, align 4
  %61 = getelementptr inbounds nuw i8, ptr %57, i64 8
  store ptr %0, ptr %61, align 8, !tbaa !9
  %62 = getelementptr inbounds nuw i8, ptr %57, i64 16
  store ptr %33, ptr %62, align 8, !tbaa !9
  %63 = getelementptr inbounds nuw i8, ptr %57, i64 24
  store ptr %45, ptr %63, align 8, !tbaa !9
  %64 = getelementptr inbounds nuw i8, ptr %57, i64 32
  store ptr %56, ptr %64, align 8, !tbaa !9
  %65 = getelementptr inbounds nuw i8, ptr %57, i64 40
  store ptr %55, ptr %65, align 8, !tbaa !9
  tail call void @lean_inc_heartbeat() #3
  %66 = tail call noalias ptr @mi_malloc_small(i64 noundef 24) #3
  %67 = icmp eq ptr %66, null
  br i1 %67, label %68, label %lean_alloc_ctor.exit46

68:                                               ; preds = %lean_alloc_ctor.exit
  tail call void @lean_internal_panic_out_of_memory() #4
  unreachable

lean_alloc_ctor.exit46:                           ; preds = %lean_alloc_ctor.exit
  %69 = getelementptr inbounds nuw i8, ptr %66, i64 4
  store i32 1, ptr %66, align 4, !tbaa !4
  store i32 131096, ptr %69, align 4
  %70 = getelementptr inbounds nuw i8, ptr %66, i64 8
  store ptr %57, ptr %70, align 8, !tbaa !9
  %71 = getelementptr inbounds nuw i8, ptr %66, i64 16
  store ptr %7, ptr %71, align 8, !tbaa !9
  ret ptr %66
}